; Function Attrs: nounwind uwtable
define noundef ptr @zend_ast_create_1(i16 noundef zeroext %0, ptr noundef %1) local_unnamed_addr #0 {
  %.mask = and i16 %0, -256
  %3 = icmp eq i16 %.mask, 256
  tail call void @llvm.assume(i1 %3)
  %4 = load ptr, ptr getelementptr inbounds (%struct._zend_compiler_globals, ptr @compiler_globals, i64 0, i32 32), align 8
  %5 = load ptr, ptr %4, align 8
  %6 = getelementptr inbounds i8, ptr %4, i64 8
  %7 = load ptr, ptr %6, align 8
  %8 = ptrtoint ptr %7 to i64
  %9 = ptrtoint ptr %5 to i64
  %10 = sub i64 %8, %9
  %.not.i = icmp ult i64 %10, 16
  br i1 %.not.i, label %13, label %11

11:                                               ; preds = %2
  %12 = getelementptr inbounds i8, ptr %5, i64 16
  store ptr %12, ptr %4, align 8
  br label %zend_ast_alloc.exit

13:                                               ; preds = %2
  %14 = ptrtoint ptr %4 to i64
  %15 = sub i64 %8, %14
  %..i = tail call i64 @llvm.umax.i64(i64 %15, i64 40)
  %16 = tail call noalias ptr @_emalloc(i64 noundef %..i) #13
  %17 = getelementptr inbounds i8, ptr %16, i64 24
  %18 = getelementptr inbounds i8, ptr %16, i64 40
  store ptr %18, ptr %16, align 8
  %19 = getelementptr inbounds i8, ptr %16, i64 %..i
  %20 = getelementptr inbounds i8, ptr %16, i64 8
  store ptr %19, ptr %20, align 8
  %21 = getelementptr inbounds i8, ptr %16, i64 16
  store ptr %4, ptr %21, align 8
  store ptr %16, ptr getelementptr inbounds (%struct._zend_compiler_globals, ptr @compiler_globals, i64 0, i32 32), align 8
  br label %zend_ast_alloc.exit

zend_ast_alloc.exit:                              ; preds = %11, %13
  %.0.i = phi ptr [ %5, %11 ], [ %17, %13 ]
  store i16 %0, ptr %.0.i, align 8
  %22 = getelementptr inbounds i8, ptr %.0.i, i64 2
  store i16 0, ptr %22, align 2
  %23 = getelementptr inbounds i8, ptr %.0.i, i64 8
  store ptr %1, ptr %23, align 8
  %.not = icmp eq ptr %1, null
  br i1 %.not, label %32, label %24

24:                                               ; preds = %zend_ast_alloc.exit
  %25 = load i16, ptr %1, align 8
  switch i16 %25, label %30 [
    i16 64, label %26
    i16 65, label %28
  ]

26:                                               ; preds = %24
  %27 = getelementptr inbounds i8, ptr %1, i64 20
  br label %32

28:                                               ; preds = %24
  %29 = getelementptr inbounds i8, ptr %1, i64 20
  br label %32

30:                                               ; preds = %24
  %31 = getelementptr inbounds i8, ptr %1, i64 4
  br label %32

32:                                               ; preds = %zend_ast_alloc.exit, %26, %28, %30
  %.0.in = phi ptr [ %27, %26 ], [ %29, %28 ], [ %31, %30 ], [ getelementptr inbounds (%struct._zend_compiler_globals, ptr @compiler_globals, i64 0, i32 3), %zend_ast_alloc.exit ]
  %.0 = load i32, ptr %.0.in, align 4
  %33 = getelementptr inbounds i8, ptr %.0.i, i64 4
  store i32 %.0, ptr %33, align 4
  ret ptr %.0.i
}